target datalayout = "e-m:e-p270:32:32-p271:32:32-p272:64:64-i64:64-i128:128-f80:128-n8:16:32:64-S128"
target triple = "x86_64-pc-linux-gnu"

@hf_ipmi_se_20_rs_num = internal global i32 0, align 4
@hf_ipmi_se_20_rs_sdr = internal global i32 0, align 4
@hf_ipmi_se_20_rs_change = internal global i32 0, align 4
@ett_ipmi_se_20_rs_byte2 = internal global i32 0, align 4
@rs20.byte2 = internal constant [6 x ptr] [ptr @hf_ipmi_se_20_rs_population, ptr @hf_ipmi_se_20_rs_lun3, ptr @hf_ipmi_se_20_rs_lun2, ptr @hf_ipmi_se_20_rs_lun1, ptr @hf_ipmi_se_20_rs_lun0, ptr null], align 16

; Function Attrs: null_pointer_is_valid sspstrong uwtable
define internal void @rs20(ptr noundef %0, ptr noundef %1, ptr noundef %2) #0 {
  %4 = alloca ptr, align 8
  %5 = alloca ptr, align 8
  %6 = alloca ptr, align 8
  %7 = alloca i32, align 4
  store ptr %0, ptr %4, align 8
  store ptr %1, ptr %5, align 8
  store ptr %2, ptr %6, align 8
  call void @llvm.lifetime.start.p0(i64 4, ptr %7) #5
  %8 = load ptr, ptr %5, align 8
  %9 = call zeroext i1 @ipmi_get_data(ptr noundef %8, i32 noundef 0, ptr noundef %7)
  br i1 %9, label %10, label %18

10:                                               ; preds = %3
  %11 = load i32, ptr %7, align 4
  %12 = icmp ne i32 %11, 0
  br i1 %12, label %13, label %18

13:                                               ; preds = %10
  %14 = load ptr, ptr %6, align 8
  %15 = load i32, ptr @hf_ipmi_se_20_rs_sdr, align 4
  %16 = load ptr, ptr %4, align 8
  %17 = call ptr @proto_tree_add_item(ptr noundef %14, i32 noundef %15, ptr noundef %16, i32 noundef 0, i32 noundef 1, i32 noundef -2147483648)
  br label %23

18:                                               ; preds = %10, %3
  %19 = load ptr, ptr %6, align 8
  %20 = load i32, ptr @hf_ipmi_se_20_rs_num, align 4
  %21 = load ptr, ptr %4, align 8
  %22 = call ptr @proto_tree_add_item(ptr noundef %19, i32 noundef %20, ptr noundef %21, i32 noundef 0, i32 noundef 1, i32 noundef -2147483648)
  br label %23

23:                                               ; preds = %18, %13
  %24 = load ptr, ptr %6, align 8
  %25 = load ptr, ptr %4, align 8
  %26 = load i32, ptr @ett_ipmi_se_20_rs_byte2, align 4
  %27 = call ptr @proto_tree_add_bitmask_text(ptr noundef %24, ptr noundef %25, i32 noundef 1, i32 noundef 1, ptr noundef null, ptr noundef null, i32 noundef %26, ptr noundef @rs20.byte2, i32 noundef -2147483648, i32 noundef 0)
  %28 = load ptr, ptr %4, align 8
  %29 = call zeroext i8 @tvb_get_uint8(ptr noundef %28, i32 noundef 1)
  %30 = zext i8 %29 to i32
  %31 = and i32 %30, 128
  %32 = icmp ne i32 %31, 0
  br i1 %32, label %33, label %38

33:                                               ; preds = %23
  %34 = load ptr, ptr %6, align 8
  %35 = load i32, ptr @hf_ipmi_se_20_rs_change, align 4
  %36 = load ptr, ptr %4, align 8
  %37 = call ptr @proto_tree_add_item(ptr noundef %34, i32 noundef %35, ptr noundef %36, i32 noundef 2, i32 noundef 4, i32 noundef -2147483648)
  br label %38

38:                                               ; preds = %33, %23
  call void @llvm.lifetime.end.p0(i64 4, ptr %7) #5
  ret void
}