; Function Attrs: null_pointer_is_valid sspstrong uwtable
define internal void @rs20(ptr noundef %0, ptr noundef %1, ptr noundef %2) #0 {
  %4 = alloca i32, align 4
  call void @llvm.lifetime.start.p0(i64 4, ptr nonnull %4) #4
  %5 = call zeroext i1 @ipmi_get_data(ptr noundef %1, i32 noundef 0, ptr noundef nonnull %4)
  %6 = load i32, ptr %4, align 4
  %7 = icmp ne i32 %6, 0
  %or.cond = select i1 %5, i1 %7, i1 false
  %hf_ipmi_se_20_rs_sdr.val = load i32, ptr @hf_ipmi_se_20_rs_sdr, align 4
  %hf_ipmi_se_20_rs_num.val = load i32, ptr @hf_ipmi_se_20_rs_num, align 4
  %8 = select i1 %or.cond, i32 %hf_ipmi_se_20_rs_sdr.val, i32 %hf_ipmi_se_20_rs_num.val
  %9 = call ptr @proto_tree_add_item(ptr noundef %2, i32 noundef %8, ptr noundef %0, i32 noundef 0, i32 noundef 1, i32 noundef -2147483648)
  %10 = load i32, ptr @ett_ipmi_se_20_rs_byte2, align 4
  %11 = call ptr @proto_tree_add_bitmask_text(ptr noundef %2, ptr noundef %0, i32 noundef 1, i32 noundef 1, ptr noundef null, ptr noundef null, i32 noundef %10, ptr noundef nonnull @rs20.byte2, i32 noundef -2147483648, i32 noundef 0)
  %12 = call zeroext i8 @tvb_get_uint8(ptr noundef %0, i32 noundef 1)
  %.not = icmp sgt i8 %12, -1
  br i1 %.not, label %16, label %13

13:                                               ; preds = %3
  %14 = load i32, ptr @hf_ipmi_se_20_rs_change, align 4
  %15 = call ptr @proto_tree_add_item(ptr noundef %2, i32 noundef %14, ptr noundef %0, i32 noundef 2, i32 noundef 4, i32 noundef -2147483648)
  br label %16

16:                                               ; preds = %13, %3
  call void @llvm.lifetime.end.p0(i64 4, ptr nonnull %4) #4
  ret void
}